target datalayout = "e-m:e-p270:32:32-p271:32:32-p272:64:64-i64:64-i128:128-f80:128-n8:16:32:64-S128"
target triple = "x86_64-unknown-linux-gnu"

%"class.OpenColorIO_v2_4dev::ColorSpaceTransform" = type { %"class.OpenColorIO_v2_4dev::Transform", ptr }
%"class.OpenColorIO_v2_4dev::Transform" = type { ptr }
%"class.OpenColorIO_v2_4dev::ColorSpaceTransform::Impl" = type <{ i32, [4 x i8], %"class.std::__cxx11::basic_string", %"class.std::__cxx11::basic_string", i8, [7 x i8] }>
%"class.std::__cxx11::basic_string" = type { %"struct.std::__cxx11::basic_string<char>::_Alloc_hider", i64, %union.anon }
%"struct.std::__cxx11::basic_string<char>::_Alloc_hider" = type { ptr }
%union.anon = type { i64, [8 x i8] }

; Function Attrs: mustprogress nounwind uwtable
define linkonce_odr hidden void @_ZN19OpenColorIO_v2_4dev9TransformD2Ev(ptr noundef nonnull align 8 dereferenceable(8) %this) unnamed_addr #3 comdat align 2 {
entry:
  %this.addr = alloca ptr, align 8
  store ptr %this, ptr %this.addr, align 8
  ret void
}

; Function Attrs: mustprogress nounwind uwtable
define linkonce_odr hidden void @_ZN19OpenColorIO_v2_4dev19ColorSpaceTransform4ImplD2Ev(ptr noundef nonnull align 8 dereferenceable(73) %this) unnamed_addr #3 comdat align 2 {
entry:
  %this.addr = alloca ptr, align 8
  store ptr %this, ptr %this.addr, align 8
  %this1 = load ptr, ptr %this.addr, align 8
  %m_dst = getelementptr inbounds %"class.OpenColorIO_v2_4dev::ColorSpaceTransform::Impl", ptr %this1, i32 0, i32 3
  call void @_ZNSt7__cxx1112basic_stringIcSt11char_traitsIcESaIcEED1Ev(ptr noundef nonnull align 8 dereferenceable(32) %m_dst) #14
  %m_src = getelementptr inbounds %"class.OpenColorIO_v2_4dev::ColorSpaceTransform::Impl", ptr %this1, i32 0, i32 2
  call void @_ZNSt7__cxx1112basic_stringIcSt11char_traitsIcESaIcEED1Ev(ptr noundef nonnull align 8 dereferenceable(32) %m_src) #14
  ret void
}

; Function Attrs: mustprogress nounwind uwtable
define void @_ZN19OpenColorIO_v2_4dev19ColorSpaceTransformD2Ev(ptr noundef nonnull align 8 dereferenceable(16) %this) unnamed_addr #3 align 2 {
entry:
  %this.addr = alloca ptr, align 8
  store ptr %this, ptr %this.addr, align 8
  %this1 = load ptr, ptr %this.addr, align 8
  store ptr getelementptr inbounds ({ [9 x ptr] }, ptr @_ZTVN19OpenColorIO_v2_4dev19ColorSpaceTransformE, i32 0, i32 0, i32 2), ptr %this1, align 8
  %m_impl = getelementptr inbounds %"class.OpenColorIO_v2_4dev::ColorSpaceTransform", ptr %this1, i32 0, i32 1
  %0 = load ptr, ptr %m_impl, align 8
  %isnull = icmp eq ptr %0, null
  br i1 %isnull, label %delete.end, label %delete.notnull

delete.notnull:                                   ; preds = %entry
  call void @_ZN19OpenColorIO_v2_4dev19ColorSpaceTransform4ImplD2Ev(ptr noundef nonnull align 8 dereferenceable(73) %0) #14
  call void @_ZdlPv(ptr noundef %0) #13
  br label %delete.end

delete.end:                                       ; preds = %delete.notnull, %entry
  %m_impl2 = getelementptr inbounds %"class.OpenColorIO_v2_4dev::ColorSpaceTransform", ptr %this1, i32 0, i32 1
  store ptr null, ptr %m_impl2, align 8
  call void @_ZN19OpenColorIO_v2_4dev9TransformD2Ev(ptr noundef nonnull align 8 dereferenceable(8) %this1) #14
  ret void
}