; Function Attrs: mustprogress nounwind uwtable
define void @_ZN19OpenColorIO_v2_4dev19ColorSpaceTransformD2Ev(ptr nocapture noundef nonnull align 8 dereferenceable(16) %this) unnamed_addr #3 align 2 {
entry:
  store ptr getelementptr inbounds ({ [9 x ptr] }, ptr @_ZTVN19OpenColorIO_v2_4dev19ColorSpaceTransformE, i64 0, i32 0, i64 2), ptr %this, align 8
  %m_impl = getelementptr inbounds i8, ptr %this, i64 8
  %0 = load ptr, ptr %m_impl, align 8
  %isnull = icmp eq ptr %0, null
  br i1 %isnull, label %delete.end, label %delete.notnull

delete.notnull:                                   ; preds = %entry
  %m_dst.i = getelementptr inbounds i8, ptr %0, i64 40
  tail call void @_ZNSt7__cxx1112basic_stringIcSt11char_traitsIcESaIcEED1Ev(ptr noundef nonnull align 8 dereferenceable(32) %m_dst.i) #20
  %m_src.i = getelementptr inbounds i8, ptr %0, i64 8
  tail call void @_ZNSt7__cxx1112basic_stringIcSt11char_traitsIcESaIcEED1Ev(ptr noundef nonnull align 8 dereferenceable(32) %m_src.i) #20
  tail call void @_ZdlPv(ptr noundef nonnull %0) #23
  br label %delete.end

delete.end:                                       ; preds = %delete.notnull, %entry
  store ptr null, ptr %m_impl, align 8
  ret void
}